; Function Attrs: mustprogress uwtable
define hidden void @_ZN3nla4core21mk_ineq_no_expl_checkERNS_9new_lemmaERN2lp8lar_termENS3_16lconstraint_kindERK8rational(ptr noundef nonnull readnone align 8 captures(none) dereferenceable(4736) %0, ptr noundef nonnull readonly align 8 captures(none) dereferenceable(16) %1, ptr noundef nonnull align 8 dereferenceable(28) %2, i32 noundef %3, ptr noundef nonnull align 8 dereferenceable(32) %4) local_unnamed_addr #4 align 2 personality ptr @__gxx_personality_v0 {
  %6 = alloca %"class.nla::ineq", align 8
  call void @llvm.lifetime.start.p0(i64 72, ptr nonnull %6) #27
  call void @_ZN3nla4ineqC2EN2lp16lconstraint_kindERKNS1_8lar_termERK8rational(ptr noundef nonnull align 8 dereferenceable(72) %6, i32 noundef %3, ptr noundef nonnull align 8 dereferenceable(28) %2, ptr noundef nonnull align 8 dereferenceable(32) %4)
  %7 = getelementptr inbounds nuw i8, ptr %1, i64 8
  %8 = load ptr, ptr %7, align 8, !tbaa !388
  %9 = getelementptr inbounds nuw i8, ptr %6, i64 8
  %10 = load i32, ptr %6, align 8, !tbaa !282
  %11 = getelementptr inbounds nuw i8, ptr %6, i64 40
  %12 = invoke noundef zeroext i1 @_ZN3nla4core12explain_ineqERNS_9new_lemmaERKN2lp8lar_termENS3_16lconstraint_kindERK8rational(ptr noundef nonnull align 8 dereferenceable(4736) %8, ptr noundef nonnull readonly align 8 dereferenceable(16) %1, ptr noundef nonnull align 8 dereferenceable(28) %9, i32 noundef %10, ptr noundef nonnull align 8 dereferenceable(32) %11)
          to label %.noexc unwind label %25

.noexc:                                           ; preds = %5
  br i1 %12, label %_ZN3nla9new_lemmaoRERKNS_4ineqE.exit, label %13

13:                                               ; preds = %.noexc
  %14 = load ptr, ptr %7, align 8, !tbaa !388
  %15 = getelementptr inbounds nuw i8, ptr %14, i64 256
  %16 = load ptr, ptr %15, align 8, !tbaa !254
  %17 = icmp eq ptr %16, null
  br i1 %17, label %_ZNK3nla9new_lemma7currentEv.exit.i, label %18

18:                                               ; preds = %13
  %19 = getelementptr inbounds i8, ptr %16, i64 -4
  %20 = load i32, ptr %19, align 4, !tbaa !249
  %21 = add i32 %20, -1
  %22 = zext i32 %21 to i64
  br label %_ZNK3nla9new_lemma7currentEv.exit.i

_ZNK3nla9new_lemma7currentEv.exit.i:              ; preds = %18, %13
  %.0.i.i.i.i = phi i64 [ %22, %18 ], [ 4294967295, %13 ]
  %23 = getelementptr inbounds nuw %"class.nla::lemma", ptr %16, i64 %.0.i.i.i.i
  %24 = invoke noundef nonnull align 8 dereferenceable(8) ptr @_ZN6vectorIN3nla4ineqELb1EjE9push_backERKS1_(ptr noundef nonnull align 8 dereferenceable(40) %23, ptr noundef nonnull align 8 dereferenceable(72) %6)
          to label %_ZN3nla9new_lemmaoRERKNS_4ineqE.exit unwind label %25

_ZN3nla9new_lemmaoRERKNS_4ineqE.exit:             ; preds = %.noexc, %_ZNK3nla9new_lemma7currentEv.exit.i
  call void @_ZN3nla4ineqD2Ev(ptr noundef nonnull align 8 dereferenceable(72) %6) #27
  call void @llvm.lifetime.end.p0(i64 72, ptr nonnull %6) #27
  ret void

25:                                               ; preds = %_ZNK3nla9new_lemma7currentEv.exit.i, %5
  %26 = landingpad { ptr, i32 }
          cleanup
  call void @_ZN3nla4ineqD2Ev(ptr noundef nonnull align 8 dereferenceable(72) %6) #27
  call void @llvm.lifetime.end.p0(i64 72, ptr nonnull %6) #27
  resume { ptr, i32 } %26
}